target datalayout = "e-m:e-p270:32:32-p271:32:32-p272:64:64-i64:64-i128:128-f80:128-n8:16:32:64-S128"
target triple = "x86_64-pc-linux-gnu"

%struct.Mem_Flex_t_ = type { i32, ptr, ptr, i32, i32, i32, ptr, i32, i32 }

; Function Attrs: nounwind uwtable
define ptr @Mem_FlexEntryFetch(ptr noundef %0, i32 noundef %1) #0 {
  %3 = alloca ptr, align 8
  %4 = alloca i32, align 4
  %5 = alloca ptr, align 8
  store ptr %0, ptr %3, align 8, !tbaa !27
  store i32 %1, ptr %4, align 4, !tbaa !3
  call void @llvm.lifetime.start.p0(i64 8, ptr %5) #7
  %6 = load ptr, ptr %3, align 8, !tbaa !27
  %7 = getelementptr inbounds nuw %struct.Mem_Flex_t_, ptr %6, i32 0, i32 1
  %8 = load ptr, ptr %7, align 8, !tbaa !40
  %9 = icmp eq ptr %8, null
  br i1 %9, label %21, label %10

10:                                               ; preds = %2
  %11 = load ptr, ptr %3, align 8, !tbaa !27
  %12 = getelementptr inbounds nuw %struct.Mem_Flex_t_, ptr %11, i32 0, i32 1
  %13 = load ptr, ptr %12, align 8, !tbaa !40
  %14 = load i32, ptr %4, align 4, !tbaa !3
  %15 = sext i32 %14 to i64
  %16 = getelementptr inbounds i8, ptr %13, i64 %15
  %17 = load ptr, ptr %3, align 8, !tbaa !27
  %18 = getelementptr inbounds nuw %struct.Mem_Flex_t_, ptr %17, i32 0, i32 2
  %19 = load ptr, ptr %18, align 8, !tbaa !41
  %20 = icmp ugt ptr %16, %19
  br i1 %20, label %21, label %108

21:                                               ; preds = %10, %2
  %22 = load ptr, ptr %3, align 8, !tbaa !27
  %23 = getelementptr inbounds nuw %struct.Mem_Flex_t_, ptr %22, i32 0, i32 5
  %24 = load i32, ptr %23, align 8, !tbaa !31
  %25 = load ptr, ptr %3, align 8, !tbaa !27
  %26 = getelementptr inbounds nuw %struct.Mem_Flex_t_, ptr %25, i32 0, i32 4
  %27 = load i32, ptr %26, align 4, !tbaa !42
  %28 = icmp eq i32 %24, %27
  br i1 %28, label %29, label %59

29:                                               ; preds = %21
  %30 = load ptr, ptr %3, align 8, !tbaa !27
  %31 = getelementptr inbounds nuw %struct.Mem_Flex_t_, ptr %30, i32 0, i32 4
  %32 = load i32, ptr %31, align 4, !tbaa !42
  %33 = mul nsw i32 %32, 2
  store i32 %33, ptr %31, align 4, !tbaa !42
  %34 = load ptr, ptr %3, align 8, !tbaa !27
  %35 = getelementptr inbounds nuw %struct.Mem_Flex_t_, ptr %34, i32 0, i32 6
  %36 = load ptr, ptr %35, align 8, !tbaa !35
  %37 = icmp ne ptr %36, null
  br i1 %37, label %38, label %48

38:                                               ; preds = %29
  %39 = load ptr, ptr %3, align 8, !tbaa !27
  %40 = getelementptr inbounds nuw %struct.Mem_Flex_t_, ptr %39, i32 0, i32 6
  %41 = load ptr, ptr %40, align 8, !tbaa !35
  %42 = load ptr, ptr %3, align 8, !tbaa !27
  %43 = getelementptr inbounds nuw %struct.Mem_Flex_t_, ptr %42, i32 0, i32 4
  %44 = load i32, ptr %43, align 4, !tbaa !42
  %45 = sext i32 %44 to i64
  %46 = mul i64 8, %45
  %47 = call ptr @realloc(ptr noundef %41, i64 noundef %46) #9
  br label %55

48:                                               ; preds = %29
  %49 = load ptr, ptr %3, align 8, !tbaa !27
  %50 = getelementptr inbounds nuw %struct.Mem_Flex_t_, ptr %49, i32 0, i32 4
  %51 = load i32, ptr %50, align 4, !tbaa !42
  %52 = sext i32 %51 to i64
  %53 = mul i64 8, %52
  %54 = call noalias ptr @malloc(i64 noundef %53) #8
  br label %55

55:                                               ; preds = %48, %38
  %56 = phi ptr [ %47, %38 ], [ %54, %48 ]
  %57 = load ptr, ptr %3, align 8, !tbaa !27
  %58 = getelementptr inbounds nuw %struct.Mem_Flex_t_, ptr %57, i32 0, i32 6
  store ptr %56, ptr %58, align 8, !tbaa !35
  br label %59

59:                                               ; preds = %55, %21
  %60 = load i32, ptr %4, align 4, !tbaa !3
  %61 = load ptr, ptr %3, align 8, !tbaa !27
  %62 = getelementptr inbounds nuw %struct.Mem_Flex_t_, ptr %61, i32 0, i32 3
  %63 = load i32, ptr %62, align 8, !tbaa !29
  %64 = icmp sgt i32 %60, %63
  br i1 %64, label %65, label %70

65:                                               ; preds = %59
  %66 = load i32, ptr %4, align 4, !tbaa !3
  %67 = mul nsw i32 2, %66
  %68 = load ptr, ptr %3, align 8, !tbaa !27
  %69 = getelementptr inbounds nuw %struct.Mem_Flex_t_, ptr %68, i32 0, i32 3
  store i32 %67, ptr %69, align 8, !tbaa !29
  br label %70

70:                                               ; preds = %65, %59
  %71 = load ptr, ptr %3, align 8, !tbaa !27
  %72 = getelementptr inbounds nuw %struct.Mem_Flex_t_, ptr %71, i32 0, i32 3
  %73 = load i32, ptr %72, align 8, !tbaa !29
  %74 = sext i32 %73 to i64
  %75 = mul i64 1, %74
  %76 = call noalias ptr @malloc(i64 noundef %75) #8
  %77 = load ptr, ptr %3, align 8, !tbaa !27
  %78 = getelementptr inbounds nuw %struct.Mem_Flex_t_, ptr %77, i32 0, i32 1
  store ptr %76, ptr %78, align 8, !tbaa !40
  %79 = load ptr, ptr %3, align 8, !tbaa !27
  %80 = getelementptr inbounds nuw %struct.Mem_Flex_t_, ptr %79, i32 0, i32 1
  %81 = load ptr, ptr %80, align 8, !tbaa !40
  %82 = load ptr, ptr %3, align 8, !tbaa !27
  %83 = getelementptr inbounds nuw %struct.Mem_Flex_t_, ptr %82, i32 0, i32 3
  %84 = load i32, ptr %83, align 8, !tbaa !29
  %85 = sext i32 %84 to i64
  %86 = getelementptr inbounds i8, ptr %81, i64 %85
  %87 = load ptr, ptr %3, align 8, !tbaa !27
  %88 = getelementptr inbounds nuw %struct.Mem_Flex_t_, ptr %87, i32 0, i32 2
  store ptr %86, ptr %88, align 8, !tbaa !41
  %89 = load ptr, ptr %3, align 8, !tbaa !27
  %90 = getelementptr inbounds nuw %struct.Mem_Flex_t_, ptr %89, i32 0, i32 3
  %91 = load i32, ptr %90, align 8, !tbaa !29
  %92 = load ptr, ptr %3, align 8, !tbaa !27
  %93 = getelementptr inbounds nuw %struct.Mem_Flex_t_, ptr %92, i32 0, i32 8
  %94 = load i32, ptr %93, align 4, !tbaa !34
  %95 = add nsw i32 %94, %91
  store i32 %95, ptr %93, align 4, !tbaa !34
  %96 = load ptr, ptr %3, align 8, !tbaa !27
  %97 = getelementptr inbounds nuw %struct.Mem_Flex_t_, ptr %96, i32 0, i32 1
  %98 = load ptr, ptr %97, align 8, !tbaa !40
  %99 = load ptr, ptr %3, align 8, !tbaa !27
  %100 = getelementptr inbounds nuw %struct.Mem_Flex_t_, ptr %99, i32 0, i32 6
  %101 = load ptr, ptr %100, align 8, !tbaa !35
  %102 = load ptr, ptr %3, align 8, !tbaa !27
  %103 = getelementptr inbounds nuw %struct.Mem_Flex_t_, ptr %102, i32 0, i32 5
  %104 = load i32, ptr %103, align 8, !tbaa !31
  %105 = add nsw i32 %104, 1
  store i32 %105, ptr %103, align 8, !tbaa !31
  %106 = sext i32 %104 to i64
  %107 = getelementptr inbounds ptr, ptr %101, i64 %106
  store ptr %98, ptr %107, align 8, !tbaa !24
  br label %108

108:                                              ; preds = %70, %10
  %109 = load ptr, ptr %3, align 8, !tbaa !27
  %110 = getelementptr inbounds nuw %struct.Mem_Flex_t_, ptr %109, i32 0, i32 0
  %111 = load i32, ptr %110, align 8, !tbaa !32
  %112 = add nsw i32 %111, 1
  store i32 %112, ptr %110, align 8, !tbaa !32
  %113 = load i32, ptr %4, align 4, !tbaa !3
  %114 = load ptr, ptr %3, align 8, !tbaa !27
  %115 = getelementptr inbounds nuw %struct.Mem_Flex_t_, ptr %114, i32 0, i32 7
  %116 = load i32, ptr %115, align 8, !tbaa !33
  %117 = add nsw i32 %116, %113
  store i32 %117, ptr %115, align 8, !tbaa !33
  %118 = load ptr, ptr %3, align 8, !tbaa !27
  %119 = getelementptr inbounds nuw %struct.Mem_Flex_t_, ptr %118, i32 0, i32 1
  %120 = load ptr, ptr %119, align 8, !tbaa !40
  store ptr %120, ptr %5, align 8, !tbaa !24
  %121 = load i32, ptr %4, align 4, !tbaa !3
  %122 = load ptr, ptr %3, align 8, !tbaa !27
  %123 = getelementptr inbounds nuw %struct.Mem_Flex_t_, ptr %122, i32 0, i32 1
  %124 = load ptr, ptr %123, align 8, !tbaa !40
  %125 = sext i32 %121 to i64
  %126 = getelementptr inbounds i8, ptr %124, i64 %125
  store ptr %126, ptr %123, align 8, !tbaa !40
  %127 = load ptr, ptr %5, align 8, !tbaa !24
  call void @llvm.lifetime.end.p0(i64 8, ptr %5) #7
  ret ptr %127
}