; Function Attrs: mustprogress nounwind willreturn uwtable
define ptr @Mem_FlexEntryFetch(ptr noundef captures(none) %0, i32 noundef %1) local_unnamed_addr #8 {
  %3 = getelementptr inbounds nuw i8, ptr %0, i64 8
  %4 = load ptr, ptr %3, align 8, !tbaa !36
  %5 = icmp eq ptr %4, null
  br i1 %5, label %12, label %6

6:                                                ; preds = %2
  %7 = sext i32 %1 to i64
  %8 = getelementptr inbounds i8, ptr %4, i64 %7
  %9 = getelementptr inbounds nuw i8, ptr %0, i64 16
  %10 = load ptr, ptr %9, align 8, !tbaa !37
  %11 = icmp ugt ptr %8, %10
  br i1 %11, label %12, label %51

12:                                               ; preds = %6, %2
  %13 = getelementptr inbounds nuw i8, ptr %0, i64 32
  %14 = load i32, ptr %13, align 8, !tbaa !22
  %15 = getelementptr inbounds nuw i8, ptr %0, i64 28
  %16 = load i32, ptr %15, align 4, !tbaa !35
  %17 = icmp eq i32 %14, %16
  br i1 %17, label %18, label %30

18:                                               ; preds = %12
  %19 = shl nsw i32 %14, 1
  store i32 %19, ptr %15, align 4, !tbaa !35
  %20 = getelementptr inbounds nuw i8, ptr %0, i64 40
  %21 = load ptr, ptr %20, align 8, !tbaa !24
  %.not = icmp eq ptr %21, null
  %22 = sext i32 %19 to i64
  %23 = shl nsw i64 %22, 3
  br i1 %.not, label %26, label %24

24:                                               ; preds = %18
  %25 = tail call ptr @realloc(ptr noundef nonnull %21, i64 noundef %23) #16
  br label %28

26:                                               ; preds = %18
  %27 = tail call noalias ptr @malloc(i64 noundef %23) #14
  br label %28

28:                                               ; preds = %26, %24
  %29 = phi ptr [ %25, %24 ], [ %27, %26 ]
  store ptr %29, ptr %20, align 8, !tbaa !24
  br label %30

30:                                               ; preds = %28, %12
  %31 = getelementptr inbounds nuw i8, ptr %0, i64 24
  %32 = load i32, ptr %31, align 8, !tbaa !26
  %33 = icmp sgt i32 %1, %32
  br i1 %33, label %34, label %36

34:                                               ; preds = %30
  %35 = shl nsw i32 %1, 1
  store i32 %35, ptr %31, align 8, !tbaa !26
  br label %36

36:                                               ; preds = %34, %30
  %37 = phi i32 [ %35, %34 ], [ %32, %30 ]
  %38 = sext i32 %37 to i64
  %39 = tail call noalias ptr @malloc(i64 noundef %38) #14
  store ptr %39, ptr %3, align 8, !tbaa !36
  %40 = getelementptr inbounds i8, ptr %39, i64 %38
  %41 = getelementptr inbounds nuw i8, ptr %0, i64 16
  store ptr %40, ptr %41, align 8, !tbaa !37
  %42 = getelementptr inbounds nuw i8, ptr %0, i64 52
  %43 = load i32, ptr %42, align 4, !tbaa !29
  %44 = add nsw i32 %43, %37
  store i32 %44, ptr %42, align 4, !tbaa !29
  %45 = getelementptr inbounds nuw i8, ptr %0, i64 40
  %46 = load ptr, ptr %45, align 8, !tbaa !24
  %47 = load i32, ptr %13, align 8, !tbaa !22
  %48 = add nsw i32 %47, 1
  store i32 %48, ptr %13, align 8, !tbaa !22
  %49 = sext i32 %47 to i64
  %50 = getelementptr inbounds ptr, ptr %46, i64 %49
  store ptr %39, ptr %50, align 8, !tbaa !19
  %.pre = load ptr, ptr %3, align 8, !tbaa !36
  %.pre35 = sext i32 %1 to i64
  br label %51

51:                                               ; preds = %36, %6
  %.pre-phi = phi i64 [ %.pre35, %36 ], [ %7, %6 ]
  %52 = phi ptr [ %.pre, %36 ], [ %4, %6 ]
  %53 = load i32, ptr %0, align 8, !tbaa !27
  %54 = add nsw i32 %53, 1
  store i32 %54, ptr %0, align 8, !tbaa !27
  %55 = getelementptr inbounds nuw i8, ptr %0, i64 48
  %56 = load i32, ptr %55, align 8, !tbaa !28
  %57 = add nsw i32 %56, %1
  store i32 %57, ptr %55, align 8, !tbaa !28
  %58 = getelementptr inbounds i8, ptr %52, i64 %.pre-phi
  store ptr %58, ptr %3, align 8, !tbaa !36
  ret ptr %52
}